; ModuleID = 'source-C-CXX/56/1654.c'
source_filename = "source-C-CXX/56/1654.c"
target datalayout = "e-m:e-p270:32:32-p271:32:32-p272:64:64-i64:64-f80:128-n8:16:32:64-S128"
target triple = "x86_64-pc-linux-gnu"

@.str = private unnamed_addr constant [3 x i8] c"%d\00", align 1
@.str.1 = private unnamed_addr constant [3 x i8] c"%s\00", align 1

; Function Attrs: nofree nounwind sspstrong uwtable
define dso_local i32 @main() local_unnamed_addr #0 {
  %1 = alloca [50 x i8], align 16
  %2 = alloca i32, align 4
  %3 = getelementptr inbounds [50 x i8], [50 x i8]* %1, i64 0, i64 0
  call void @llvm.lifetime.start.p0i8(i64 50, i8* nonnull %3) #5
  %4 = bitcast i32* %2 to i8*
  call void @llvm.lifetime.start.p0i8(i64 4, i8* nonnull %4) #5
  %5 = call i32 (i8*, ...) @__isoc99_scanf(i8* getelementptr inbounds ([3 x i8], [3 x i8]* @.str, i64 0, i64 0), i32* nonnull %2)
  %6 = load i32, i32* %2, align 4, !tbaa !5
  %7 = icmp sgt i32 %6, 0
  br i1 %7, label %8, label %43

8:                                                ; preds = %0, %38
  %9 = phi i32 [ %40, %38 ], [ 0, %0 ]
  %10 = phi i32 [ %26, %38 ], [ undef, %0 ]
  %11 = call i32 (i8*, ...) @__isoc99_scanf(i8* getelementptr inbounds ([3 x i8], [3 x i8]* @.str.1, i64 0, i64 0), i8* nonnull %3)
  %12 = call i64 @strlen(i8* noundef nonnull %3) #6
  %13 = trunc i64 %12 to i32
  %14 = shl i64 %12, 32
  %15 = add i64 %14, -4294967296
  %16 = ashr exact i64 %15, 32
  %17 = getelementptr inbounds [50 x i8], [50 x i8]* %1, i64 0, i64 %16
  %18 = load i8, i8* %17, align 1, !tbaa !9
  switch i8 %18, label %25 [
    i8 114, label %19
    i8 121, label %21
    i8 103, label %23
  ]

19:                                               ; preds = %8
  %20 = add nsw i32 %13, -2
  br label %25

21:                                               ; preds = %8
  %22 = add nsw i32 %13, -2
  br label %25

23:                                               ; preds = %8
  %24 = add nsw i32 %13, -3
  br label %25

25:                                               ; preds = %8, %21, %23, %19
  %26 = phi i32 [ %20, %19 ], [ %22, %21 ], [ %24, %23 ], [ %10, %8 ]
  %27 = icmp sgt i32 %26, 0
  br i1 %27, label %28, label %38

28:                                               ; preds = %25
  %29 = zext i32 %26 to i64
  br label %30

30:                                               ; preds = %28, %30
  %31 = phi i64 [ 0, %28 ], [ %36, %30 ]
  %32 = getelementptr inbounds [50 x i8], [50 x i8]* %1, i64 0, i64 %31
  %33 = load i8, i8* %32, align 1, !tbaa !9
  %34 = sext i8 %33 to i32
  %35 = call i32 @putchar(i32 %34)
  %36 = add nuw nsw i64 %31, 1
  %37 = icmp eq i64 %36, %29
  br i1 %37, label %38, label %30, !llvm.loop !10

38:                                               ; preds = %30, %25
  %39 = call i32 @putchar(i32 10)
  %40 = add nuw nsw i32 %9, 1
  %41 = load i32, i32* %2, align 4, !tbaa !5
  %42 = icmp slt i32 %40, %41
  br i1 %42, label %8, label %43, !llvm.loop !12

43:                                               ; preds = %38, %0
  call void @llvm.lifetime.end.p0i8(i64 4, i8* nonnull %4) #5
  call void @llvm.lifetime.end.p0i8(i64 50, i8* nonnull %3) #5
  ret i32 0
}

; Function Attrs: argmemonly mustprogress nofree nosync nounwind willreturn
declare void @llvm.lifetime.start.p0i8(i64 immarg, i8* nocapture) #1

; Function Attrs: nofree nounwind
declare noundef i32 @__isoc99_scanf(i8* nocapture noundef readonly, ...) local_unnamed_addr #2

; Function Attrs: argmemonly mustprogress nofree nounwind readonly willreturn
declare i64 @strlen(i8* nocapture) local_unnamed_addr #3

; Function Attrs: argmemonly mustprogress nofree nosync nounwind willreturn
declare void @llvm.lifetime.end.p0i8(i64 immarg, i8* nocapture) #1

; Function Attrs: nofree nounwind
declare noundef i32 @putchar(i32 noundef) local_unnamed_addr #4


!llvm.module.flags = !{!0, !1, !2, !3}
!llvm.ident = !{!4}

!0 = !{i32 1, !"wchar_size", i32 4}
!1 = !{i32 7, !"PIC Level", i32 2}
!2 = !{i32 7, !"PIE Level", i32 2}
!3 = !{i32 7, !"uwtable", i32 1}
!4 = !{!"clang version 13.0.0"}
!5 = !{!6, !6, i64 0}
!6 = !{!"int", !7, i64 0}
!7 = !{!"omnipotent char", !8, i64 0}
!8 = !{!"Simple C/C++ TBAA"}
!9 = !{!7, !7, i64 0}
!10 = distinct !{!10, !11}
!11 = !{!"llvm.loop.mustprogress"}
!12 = distinct !{!12, !11}
